target datalayout = "e-m:e-p270:32:32-p271:32:32-p272:64:64-i64:64-i128:128-f80:128-n8:16:32:64-S128"
target triple = "x86_64-unknown-linux-gnu"

%"class.re2::Regexp" = type { i8, i8, i16, i16, i16, %union.anon, ptr, %union.anon.0 }
%union.anon = type { ptr }
%union.anon.0 = type { %struct.anon.1 }
%struct.anon.1 = type { i32, ptr }
%struct.anon = type { i32, i32 }

@_ZN3re26RegexpC1ENS_8RegexpOpENS0_10ParseFlagsE = unnamed_addr alias void (ptr, i32, i32), ptr @_ZN3re26RegexpC2ENS_8RegexpOpENS0_10ParseFlagsE

; Function Attrs: mustprogress nounwind uwtable
define linkonce_odr noundef ptr @_ZN3re26Regexp3subEv(ptr noundef nonnull align 8 dereferenceable(40) %this) #0 comdat align 2 {
entry:
  %retval = alloca ptr, align 8
  %this.addr = alloca ptr, align 8
  store ptr %this, ptr %this.addr, align 8
  %this1 = load ptr, ptr %this.addr, align 8
  %nsub_ = getelementptr inbounds %"class.re2::Regexp", ptr %this1, i32 0, i32 4
  %0 = load i16, ptr %nsub_, align 2
  %conv = zext i16 %0 to i32
  %cmp = icmp sle i32 %conv, 1
  br i1 %cmp, label %if.then, label %if.else

if.then:                                          ; preds = %entry
  %1 = getelementptr inbounds %"class.re2::Regexp", ptr %this1, i32 0, i32 5
  store ptr %1, ptr %retval, align 8
  br label %return

if.else:                                          ; preds = %entry
  %2 = getelementptr inbounds %"class.re2::Regexp", ptr %this1, i32 0, i32 5
  %3 = load ptr, ptr %2, align 8
  store ptr %3, ptr %retval, align 8
  br label %return

return:                                           ; preds = %if.else, %if.then
  %4 = load ptr, ptr %retval, align 8
  ret ptr %4
}

; Function Attrs: mustprogress uwtable
define linkonce_odr void @_ZN3re26Regexp8AllocSubEi(ptr noundef nonnull align 8 dereferenceable(40) %this, i32 noundef %n) #3 comdat align 2 {
entry:
  %this.addr = alloca ptr, align 8
  %n.addr = alloca i32, align 4
  store ptr %this, ptr %this.addr, align 8
  store i32 %n, ptr %n.addr, align 4
  %this1 = load ptr, ptr %this.addr, align 8
  %0 = load i32, ptr %n.addr, align 4
  %cmp = icmp sgt i32 %0, 1
  br i1 %cmp, label %if.then, label %if.end

if.then:                                          ; preds = %entry
  %1 = load i32, ptr %n.addr, align 4
  %conv = sext i32 %1 to i64
  %2 = call { i64, i1 } @llvm.umul.with.overflow.i64(i64 %conv, i64 8)
  %3 = extractvalue { i64, i1 } %2, 1
  %4 = extractvalue { i64, i1 } %2, 0
  %5 = select i1 %3, i64 -1, i64 %4
  %call = call noalias noundef nonnull ptr @_Znam(i64 noundef %5) #19
  %6 = getelementptr inbounds %"class.re2::Regexp", ptr %this1, i32 0, i32 5
  store ptr %call, ptr %6, align 8
  br label %if.end

if.end:                                           ; preds = %if.then, %entry
  %7 = load i32, ptr %n.addr, align 4
  %conv2 = trunc i32 %7 to i16
  %nsub_ = getelementptr inbounds %"class.re2::Regexp", ptr %this1, i32 0, i32 4
  store i16 %conv2, ptr %nsub_, align 2
  ret void
}

; Function Attrs: mustprogress uwtable
define noundef ptr @_ZN3re26Regexp6RepeatEPS0_NS0_10ParseFlagsEii(ptr noundef %sub, i32 noundef %flags, i32 noundef %min, i32 noundef %max) #3 align 2 personality ptr @__gxx_personality_v0 {
entry:
  %sub.addr = alloca ptr, align 8
  %flags.addr = alloca i32, align 4
  %min.addr = alloca i32, align 4
  %max.addr = alloca i32, align 4
  %re = alloca ptr, align 8
  %exn.slot = alloca ptr, align 8
  %ehselector.slot = alloca i32, align 4
  store ptr %sub, ptr %sub.addr, align 8
  store i32 %flags, ptr %flags.addr, align 4
  store i32 %min, ptr %min.addr, align 4
  store i32 %max, ptr %max.addr, align 4
  %call = call noalias noundef nonnull ptr @_Znwm(i64 noundef 40) #19
  %0 = load i32, ptr %flags.addr, align 4
  invoke void @_ZN3re26RegexpC1ENS_8RegexpOpENS0_10ParseFlagsE(ptr noundef nonnull align 8 dereferenceable(40) %call, i32 noundef 10, i32 noundef %0)
          to label %invoke.cont unwind label %lpad

invoke.cont:                                      ; preds = %entry
  store ptr %call, ptr %re, align 8
  %1 = load ptr, ptr %re, align 8
  call void @_ZN3re26Regexp8AllocSubEi(ptr noundef nonnull align 8 dereferenceable(40) %1, i32 noundef 1)
  %2 = load ptr, ptr %sub.addr, align 8
  %3 = load ptr, ptr %re, align 8
  %call1 = call noundef ptr @_ZN3re26Regexp3subEv(ptr noundef nonnull align 8 dereferenceable(40) %3)
  %arrayidx = getelementptr inbounds ptr, ptr %call1, i64 0
  store ptr %2, ptr %arrayidx, align 8
  %4 = load i32, ptr %min.addr, align 4
  %5 = load ptr, ptr %re, align 8
  %6 = getelementptr inbounds %"class.re2::Regexp", ptr %5, i32 0, i32 7
  %min_ = getelementptr inbounds %struct.anon, ptr %6, i32 0, i32 1
  store i32 %4, ptr %min_, align 4
  %7 = load i32, ptr %max.addr, align 4
  %8 = load ptr, ptr %re, align 8
  %9 = getelementptr inbounds %"class.re2::Regexp", ptr %8, i32 0, i32 7
  %max_ = getelementptr inbounds %struct.anon, ptr %9, i32 0, i32 0
  store i32 %7, ptr %max_, align 8
  %10 = load ptr, ptr %re, align 8
  ret ptr %10

lpad:                                             ; preds = %entry
  %11 = landingpad { ptr, i32 }
          cleanup
  %12 = extractvalue { ptr, i32 } %11, 0
  store ptr %12, ptr %exn.slot, align 8
  %13 = extractvalue { ptr, i32 } %11, 1
  store i32 %13, ptr %ehselector.slot, align 4
  call void @_ZdlPv(ptr noundef %call) #17
  br label %eh.resume

eh.resume:                                        ; preds = %lpad
  %exn = load ptr, ptr %exn.slot, align 8
  %sel = load i32, ptr %ehselector.slot, align 4
  %lpad.val = insertvalue { ptr, i32 } poison, ptr %exn, 0
  %lpad.val2 = insertvalue { ptr, i32 } %lpad.val, i32 %sel, 1
  resume { ptr, i32 } %lpad.val2
}