; Function Attrs: mustprogress uwtable
define noundef ptr @_ZN3re26Regexp6RepeatEPS0_NS0_10ParseFlagsEii(ptr noundef %sub, i32 noundef %flags, i32 noundef %min, i32 noundef %max) local_unnamed_addr #7 align 2 personality ptr @__gxx_personality_v0 {
entry:
  %call = tail call noalias noundef nonnull dereferenceable(40) ptr @_Znwm(i64 noundef 40) #29
  invoke void @_ZN3re26RegexpC1ENS_8RegexpOpENS0_10ParseFlagsE(ptr noundef nonnull align 8 dereferenceable(40) %call, i32 noundef 10, i32 noundef %flags)
          to label %invoke.cont unwind label %lpad

invoke.cont:                                      ; preds = %entry
  %nsub_.i = getelementptr inbounds i8, ptr %call, i64 6
  store i16 1, ptr %nsub_.i, align 2
  %0 = getelementptr inbounds i8, ptr %call, i64 8
  store ptr %sub, ptr %0, align 8
  %1 = getelementptr inbounds i8, ptr %call, i64 24
  %min_ = getelementptr inbounds i8, ptr %call, i64 28
  store i32 %min, ptr %min_, align 4
  store i32 %max, ptr %1, align 8
  ret ptr %call

lpad:                                             ; preds = %entry
  %2 = landingpad { ptr, i32 }
          cleanup
  tail call void @_ZdlPv(ptr noundef nonnull %call) #26
  resume { ptr, i32 } %2
}